; Function Attrs: null_pointer_is_valid sspstrong uwtable
define internal fastcc void @glxCreatePixmap(ptr noundef %0, ptr noundef captures(none) %1, ptr noundef %2, i32 noundef %3) unnamed_addr #1 {
  %5 = load i32, ptr @hf_x11_glx_CreatePixmap_screen, align 4
  %6 = load i32, ptr %1, align 4
  %7 = tail call ptr @proto_tree_add_item(ptr noundef %2, i32 noundef %5, ptr noundef %0, i32 noundef %6, i32 noundef 4, i32 noundef %3)
  %8 = load i32, ptr %1, align 4
  %9 = add i32 %8, 4
  store i32 %9, ptr %1, align 4
  %10 = load i32, ptr @hf_x11_glx_CreatePixmap_fbconfig, align 4
  %11 = tail call ptr @proto_tree_add_item(ptr noundef %2, i32 noundef %10, ptr noundef %0, i32 noundef %9, i32 noundef 4, i32 noundef %3)
  %12 = load i32, ptr %1, align 4
  %13 = add i32 %12, 4
  store i32 %13, ptr %1, align 4
  %14 = load i32, ptr @hf_x11_glx_CreatePixmap_pixmap, align 4
  %15 = tail call ptr @proto_tree_add_item(ptr noundef %2, i32 noundef %14, ptr noundef %0, i32 noundef %13, i32 noundef 4, i32 noundef %3)
  %16 = load i32, ptr %1, align 4
  %17 = add i32 %16, 4
  store i32 %17, ptr %1, align 4
  %18 = load i32, ptr @hf_x11_glx_CreatePixmap_glx_pixmap, align 4
  %19 = tail call ptr @proto_tree_add_item(ptr noundef %2, i32 noundef %18, ptr noundef %0, i32 noundef %17, i32 noundef 4, i32 noundef %3)
  %20 = load i32, ptr %1, align 4
  %21 = add i32 %20, 4
  store i32 %21, ptr %1, align 4
  %22 = tail call i32 @tvb_get_uint32(ptr noundef %0, i32 noundef %21, i32 noundef %3)
  %23 = load i32, ptr @hf_x11_glx_CreatePixmap_num_attribs, align 4
  %24 = load i32, ptr %1, align 4
  %25 = tail call ptr @proto_tree_add_item(ptr noundef %2, i32 noundef %23, ptr noundef %0, i32 noundef %24, i32 noundef 4, i32 noundef %3)
  %26 = load i32, ptr %1, align 4
  %27 = add i32 %26, 4
  store i32 %27, ptr %1, align 4
  %28 = load i32, ptr @hf_x11_glx_CreatePixmap_attribs, align 4
  %29 = load i32, ptr @hf_x11_glx_CreatePixmap_attribs_item, align 4
  %30 = shl i32 %22, 1
  %31 = shl i32 %22, 3
  %32 = tail call ptr @proto_tree_add_item(ptr noundef %2, i32 noundef %28, ptr noundef %0, i32 noundef %27, i32 noundef %31, i32 noundef %3)
  %33 = load i32, ptr @ett_x11_list_of_card32, align 4
  %34 = tail call ptr @proto_item_add_subtree(ptr noundef %32, i32 noundef %33)
  %.not13.i = icmp eq i32 %30, 0
  br i1 %.not13.i, label %listOfCard32.exit, label %.lr.ph.preheader.i

.lr.ph.preheader.i:                               ; preds = %4
  %.pre.i = load i32, ptr %1, align 4
  br label %.lr.ph.i

.lr.ph.i:                                         ; preds = %.lr.ph.i, %.lr.ph.preheader.i
  %35 = phi i32 [ %39, %.lr.ph.i ], [ %.pre.i, %.lr.ph.preheader.i ]
  %.014.i = phi i32 [ %36, %.lr.ph.i ], [ %30, %.lr.ph.preheader.i ]
  %36 = add i32 %.014.i, -1
  %37 = tail call ptr @proto_tree_add_item(ptr noundef %34, i32 noundef %29, ptr noundef %0, i32 noundef %35, i32 noundef 4, i32 noundef %3)
  %38 = load i32, ptr %1, align 4
  %39 = add i32 %38, 4
  store i32 %39, ptr %1, align 4
  %.not.i = icmp eq i32 %36, 0
  br i1 %.not.i, label %listOfCard32.exit, label %.lr.ph.i, !llvm.loop !44

listOfCard32.exit:                                ; preds = %.lr.ph.i, %4
  ret void
}